target datalayout = "e-m:e-p270:32:32-p271:32:32-p272:64:64-i64:64-i128:128-f80:128-n8:16:32:64-S128"
target triple = "x86_64-pc-linux-gnu"

%struct.AVFilterContext = type { ptr, ptr, ptr, ptr, ptr, i32, ptr, ptr, i32, ptr, ptr, i32, i32, ptr, ptr, ptr, ptr, i32, ptr, i32, i32 }
%struct.AudioSpectralStatsContext = type { ptr, i32, i32, i32, float, i32, i32, ptr, ptr, ptr, ptr, ptr, ptr, ptr, ptr, ptr }

; Function Attrs: cold nounwind optsize uwtable
define internal void @uninit(ptr noundef %0) #0 {
  %2 = alloca ptr, align 8
  %3 = alloca ptr, align 8
  %4 = alloca i32, align 4
  store ptr %0, ptr %2, align 8, !tbaa !4
  call void @llvm.lifetime.start.p0(i64 8, ptr %3) #12
  %5 = load ptr, ptr %2, align 8, !tbaa !4
  %6 = getelementptr inbounds nuw %struct.AVFilterContext, ptr %5, i32 0, i32 9
  %7 = load ptr, ptr %6, align 8, !tbaa !9
  store ptr %7, ptr %3, align 8, !tbaa !22
  call void @llvm.lifetime.start.p0(i64 4, ptr %4) #12
  store i32 0, ptr %4, align 4, !tbaa !24
  br label %8

8:                                                ; preds = %76, %1
  %9 = load i32, ptr %4, align 4, !tbaa !24
  %10 = load ptr, ptr %3, align 8, !tbaa !22
  %11 = getelementptr inbounds nuw %struct.AudioSpectralStatsContext, ptr %10, i32 0, i32 5
  %12 = load i32, ptr %11, align 8, !tbaa !25
  %13 = icmp slt i32 %9, %12
  br i1 %13, label %15, label %14

14:                                               ; preds = %8
  call void @llvm.lifetime.end.p0(i64 4, ptr %4) #12
  br label %79

15:                                               ; preds = %8
  %16 = load ptr, ptr %3, align 8, !tbaa !22
  %17 = getelementptr inbounds nuw %struct.AudioSpectralStatsContext, ptr %16, i32 0, i32 10
  %18 = load ptr, ptr %17, align 8, !tbaa !34
  %19 = icmp ne ptr %18, null
  br i1 %19, label %20, label %27

20:                                               ; preds = %15
  %21 = load ptr, ptr %3, align 8, !tbaa !22
  %22 = getelementptr inbounds nuw %struct.AudioSpectralStatsContext, ptr %21, i32 0, i32 10
  %23 = load ptr, ptr %22, align 8, !tbaa !34
  %24 = load i32, ptr %4, align 4, !tbaa !24
  %25 = sext i32 %24 to i64
  %26 = getelementptr inbounds ptr, ptr %23, i64 %25
  call void @av_tx_uninit(ptr noundef %26)
  br label %27

27:                                               ; preds = %20, %15
  %28 = load ptr, ptr %3, align 8, !tbaa !22
  %29 = getelementptr inbounds nuw %struct.AudioSpectralStatsContext, ptr %28, i32 0, i32 11
  %30 = load ptr, ptr %29, align 8, !tbaa !35
  %31 = icmp ne ptr %30, null
  br i1 %31, label %32, label %39

32:                                               ; preds = %27
  %33 = load ptr, ptr %3, align 8, !tbaa !22
  %34 = getelementptr inbounds nuw %struct.AudioSpectralStatsContext, ptr %33, i32 0, i32 11
  %35 = load ptr, ptr %34, align 8, !tbaa !35
  %36 = load i32, ptr %4, align 4, !tbaa !24
  %37 = sext i32 %36 to i64
  %38 = getelementptr inbounds ptr, ptr %35, i64 %37
  call void @av_freep(ptr noundef %38)
  br label %39

39:                                               ; preds = %32, %27
  %40 = load ptr, ptr %3, align 8, !tbaa !22
  %41 = getelementptr inbounds nuw %struct.AudioSpectralStatsContext, ptr %40, i32 0, i32 12
  %42 = load ptr, ptr %41, align 8, !tbaa !36
  %43 = icmp ne ptr %42, null
  br i1 %43, label %44, label %51

44:                                               ; preds = %39
  %45 = load ptr, ptr %3, align 8, !tbaa !22
  %46 = getelementptr inbounds nuw %struct.AudioSpectralStatsContext, ptr %45, i32 0, i32 12
  %47 = load ptr, ptr %46, align 8, !tbaa !36
  %48 = load i32, ptr %4, align 4, !tbaa !24
  %49 = sext i32 %48 to i64
  %50 = getelementptr inbounds ptr, ptr %47, i64 %49
  call void @av_freep(ptr noundef %50)
  br label %51

51:                                               ; preds = %44, %39
  %52 = load ptr, ptr %3, align 8, !tbaa !22
  %53 = getelementptr inbounds nuw %struct.AudioSpectralStatsContext, ptr %52, i32 0, i32 14
  %54 = load ptr, ptr %53, align 8, !tbaa !37
  %55 = icmp ne ptr %54, null
  br i1 %55, label %56, label %63

56:                                               ; preds = %51
  %57 = load ptr, ptr %3, align 8, !tbaa !22
  %58 = getelementptr inbounds nuw %struct.AudioSpectralStatsContext, ptr %57, i32 0, i32 14
  %59 = load ptr, ptr %58, align 8, !tbaa !37
  %60 = load i32, ptr %4, align 4, !tbaa !24
  %61 = sext i32 %60 to i64
  %62 = getelementptr inbounds ptr, ptr %59, i64 %61
  call void @av_freep(ptr noundef %62)
  br label %63

63:                                               ; preds = %56, %51
  %64 = load ptr, ptr %3, align 8, !tbaa !22
  %65 = getelementptr inbounds nuw %struct.AudioSpectralStatsContext, ptr %64, i32 0, i32 13
  %66 = load ptr, ptr %65, align 8, !tbaa !38
  %67 = icmp ne ptr %66, null
  br i1 %67, label %68, label %75

68:                                               ; preds = %63
  %69 = load ptr, ptr %3, align 8, !tbaa !22
  %70 = getelementptr inbounds nuw %struct.AudioSpectralStatsContext, ptr %69, i32 0, i32 13
  %71 = load ptr, ptr %70, align 8, !tbaa !38
  %72 = load i32, ptr %4, align 4, !tbaa !24
  %73 = sext i32 %72 to i64
  %74 = getelementptr inbounds ptr, ptr %71, i64 %73
  call void @av_freep(ptr noundef %74)
  br label %75

75:                                               ; preds = %68, %63
  br label %76

76:                                               ; preds = %75
  %77 = load i32, ptr %4, align 4, !tbaa !24
  %78 = add nsw i32 %77, 1
  store i32 %78, ptr %4, align 4, !tbaa !24
  br label %8, !llvm.loop !39

79:                                               ; preds = %14
  %80 = load ptr, ptr %3, align 8, !tbaa !22
  %81 = getelementptr inbounds nuw %struct.AudioSpectralStatsContext, ptr %80, i32 0, i32 10
  call void @av_freep(ptr noundef %81)
  %82 = load ptr, ptr %3, align 8, !tbaa !22
  %83 = getelementptr inbounds nuw %struct.AudioSpectralStatsContext, ptr %82, i32 0, i32 14
  call void @av_freep(ptr noundef %83)
  %84 = load ptr, ptr %3, align 8, !tbaa !22
  %85 = getelementptr inbounds nuw %struct.AudioSpectralStatsContext, ptr %84, i32 0, i32 13
  call void @av_freep(ptr noundef %85)
  %86 = load ptr, ptr %3, align 8, !tbaa !22
  %87 = getelementptr inbounds nuw %struct.AudioSpectralStatsContext, ptr %86, i32 0, i32 11
  call void @av_freep(ptr noundef %87)
  %88 = load ptr, ptr %3, align 8, !tbaa !22
  %89 = getelementptr inbounds nuw %struct.AudioSpectralStatsContext, ptr %88, i32 0, i32 12
  call void @av_freep(ptr noundef %89)
  %90 = load ptr, ptr %3, align 8, !tbaa !22
  %91 = getelementptr inbounds nuw %struct.AudioSpectralStatsContext, ptr %90, i32 0, i32 7
  call void @av_freep(ptr noundef %91)
  %92 = load ptr, ptr %3, align 8, !tbaa !22
  %93 = getelementptr inbounds nuw %struct.AudioSpectralStatsContext, ptr %92, i32 0, i32 8
  call void @av_freep(ptr noundef %93)
  %94 = load ptr, ptr %3, align 8, !tbaa !22
  %95 = getelementptr inbounds nuw %struct.AudioSpectralStatsContext, ptr %94, i32 0, i32 15
  call void @av_frame_free(ptr noundef %95)
  call void @llvm.lifetime.end.p0(i64 8, ptr %3) #12
  ret void
}