; Function Attrs: cold nounwind optsize uwtable
define internal void @uninit(ptr noundef readonly captures(none) %0) #0 {
  %2 = getelementptr inbounds nuw i8, ptr %0, i64 72
  %3 = load ptr, ptr %2, align 8, !tbaa !4
  %4 = getelementptr inbounds nuw i8, ptr %3, i64 24
  %5 = load i32, ptr %4, align 8, !tbaa !20
  %6 = icmp sgt i32 %5, 0
  br i1 %6, label %.lr.ph, label %._crit_edge

.lr.ph:                                           ; preds = %1
  %7 = getelementptr inbounds nuw i8, ptr %3, i64 56
  %8 = getelementptr inbounds nuw i8, ptr %3, i64 64
  %9 = getelementptr inbounds nuw i8, ptr %3, i64 72
  %10 = getelementptr inbounds nuw i8, ptr %3, i64 88
  %11 = getelementptr inbounds nuw i8, ptr %3, i64 80
  br label %20

._crit_edge:                                      ; preds = %40, %1
  %12 = getelementptr inbounds nuw i8, ptr %3, i64 56
  tail call void @av_freep(ptr noundef nonnull %12) #12
  %13 = getelementptr inbounds nuw i8, ptr %3, i64 88
  tail call void @av_freep(ptr noundef nonnull %13) #12
  %14 = getelementptr inbounds nuw i8, ptr %3, i64 80
  tail call void @av_freep(ptr noundef nonnull %14) #12
  %15 = getelementptr inbounds nuw i8, ptr %3, i64 64
  tail call void @av_freep(ptr noundef nonnull %15) #12
  %16 = getelementptr inbounds nuw i8, ptr %3, i64 72
  tail call void @av_freep(ptr noundef nonnull %16) #12
  %17 = getelementptr inbounds nuw i8, ptr %3, i64 32
  tail call void @av_freep(ptr noundef nonnull %17) #12
  %18 = getelementptr inbounds nuw i8, ptr %3, i64 40
  tail call void @av_freep(ptr noundef nonnull %18) #12
  %19 = getelementptr inbounds nuw i8, ptr %3, i64 96
  tail call void @av_frame_free(ptr noundef nonnull %19) #12
  ret void

20:                                               ; preds = %.lr.ph, %40
  %indvars.iv = phi i64 [ 0, %.lr.ph ], [ %indvars.iv.next, %40 ]
  %21 = load ptr, ptr %7, align 8, !tbaa !29
  %.not = icmp eq ptr %21, null
  br i1 %.not, label %24, label %22

22:                                               ; preds = %20
  %23 = getelementptr inbounds nuw ptr, ptr %21, i64 %indvars.iv
  tail call void @av_tx_uninit(ptr noundef nonnull %23) #12
  br label %24

24:                                               ; preds = %22, %20
  %25 = load ptr, ptr %8, align 8, !tbaa !30
  %.not31 = icmp eq ptr %25, null
  br i1 %.not31, label %28, label %26

26:                                               ; preds = %24
  %27 = getelementptr inbounds nuw ptr, ptr %25, i64 %indvars.iv
  tail call void @av_freep(ptr noundef nonnull %27) #12
  br label %28

28:                                               ; preds = %26, %24
  %29 = load ptr, ptr %9, align 8, !tbaa !31
  %.not32 = icmp eq ptr %29, null
  br i1 %.not32, label %32, label %30

30:                                               ; preds = %28
  %31 = getelementptr inbounds nuw ptr, ptr %29, i64 %indvars.iv
  tail call void @av_freep(ptr noundef nonnull %31) #12
  br label %32

32:                                               ; preds = %30, %28
  %33 = load ptr, ptr %10, align 8, !tbaa !32
  %.not33 = icmp eq ptr %33, null
  br i1 %.not33, label %36, label %34

34:                                               ; preds = %32
  %35 = getelementptr inbounds nuw ptr, ptr %33, i64 %indvars.iv
  tail call void @av_freep(ptr noundef nonnull %35) #12
  br label %36

36:                                               ; preds = %34, %32
  %37 = load ptr, ptr %11, align 8, !tbaa !33
  %.not34 = icmp eq ptr %37, null
  br i1 %.not34, label %40, label %38

38:                                               ; preds = %36
  %39 = getelementptr inbounds nuw ptr, ptr %37, i64 %indvars.iv
  tail call void @av_freep(ptr noundef nonnull %39) #12
  br label %40

40:                                               ; preds = %36, %38
  %indvars.iv.next = add nuw nsw i64 %indvars.iv, 1
  %41 = load i32, ptr %4, align 8, !tbaa !20
  %42 = sext i32 %41 to i64
  %43 = icmp slt i64 %indvars.iv.next, %42
  br i1 %43, label %20, label %._crit_edge, !llvm.loop !34
}